target datalayout = "e-m:e-p270:32:32-p271:32:32-p272:64:64-i64:64-i128:128-f80:128-n8:16:32:64-S128"
target triple = "x86_64-pc-linux-gnu"

%struct.mbedtls_ecjpake_context = type { i32, %struct.mbedtls_ecp_group, i32, i32, %struct.mbedtls_ecp_point, %struct.mbedtls_ecp_point, %struct.mbedtls_ecp_point, %struct.mbedtls_ecp_point, %struct.mbedtls_ecp_point, %struct.mbedtls_mpi, %struct.mbedtls_mpi, %struct.mbedtls_mpi }
%struct.mbedtls_ecp_group = type { i32, %struct.mbedtls_mpi, %struct.mbedtls_mpi, %struct.mbedtls_mpi, %struct.mbedtls_ecp_point, %struct.mbedtls_mpi, i64, i64, i32, ptr, ptr, ptr, ptr, ptr, i64 }
%struct.mbedtls_ecp_point = type { %struct.mbedtls_mpi, %struct.mbedtls_mpi, %struct.mbedtls_mpi }
%struct.mbedtls_mpi = type { ptr, i16, i16 }

; Function Attrs: nounwind uwtable
define hidden i32 @mbedtls_ecjpake_write_shared_key(ptr noundef %0, ptr noundef %1, i64 noundef %2, ptr noundef %3, ptr noundef %4, ptr noundef %5) #0 {
  %7 = alloca ptr, align 8
  %8 = alloca ptr, align 8
  %9 = alloca i64, align 8
  %10 = alloca ptr, align 8
  %11 = alloca ptr, align 8
  %12 = alloca ptr, align 8
  %13 = alloca i32, align 4
  %14 = alloca %struct.mbedtls_ecp_point, align 8
  store ptr %0, ptr %7, align 8, !tbaa !3
  store ptr %1, ptr %8, align 8, !tbaa !20
  store i64 %2, ptr %9, align 8, !tbaa !22
  store ptr %3, ptr %10, align 8, !tbaa !29
  store ptr %4, ptr %11, align 8, !tbaa !30
  store ptr %5, ptr %12, align 8, !tbaa !30
  call void @llvm.lifetime.start.p0(i64 4, ptr %13) #9
  store i32 -110, ptr %13, align 4, !tbaa !19
  call void @llvm.lifetime.start.p0(i64 48, ptr %14) #9
  call void @mbedtls_ecp_point_init(ptr noundef %14)
  %15 = load ptr, ptr %7, align 8, !tbaa !3
  %16 = load ptr, ptr %11, align 8, !tbaa !30
  %17 = load ptr, ptr %12, align 8, !tbaa !30
  %18 = call i32 @mbedtls_ecjpake_derive_k(ptr noundef %15, ptr noundef %14, ptr noundef %16, ptr noundef %17)
  store i32 %18, ptr %13, align 4, !tbaa !19
  %19 = load i32, ptr %13, align 4, !tbaa !19
  %20 = icmp ne i32 %19, 0
  br i1 %20, label %21, label %22

21:                                               ; preds = %6
  br label %36

22:                                               ; preds = %6
  %23 = load ptr, ptr %7, align 8, !tbaa !3
  %24 = getelementptr inbounds nuw %struct.mbedtls_ecjpake_context, ptr %23, i32 0, i32 1
  %25 = load ptr, ptr %7, align 8, !tbaa !3
  %26 = getelementptr inbounds nuw %struct.mbedtls_ecjpake_context, ptr %25, i32 0, i32 3
  %27 = load i32, ptr %26, align 4, !tbaa !18
  %28 = load ptr, ptr %10, align 8, !tbaa !29
  %29 = load ptr, ptr %8, align 8, !tbaa !20
  %30 = load i64, ptr %9, align 8, !tbaa !22
  %31 = call i32 @mbedtls_ecp_point_write_binary(ptr noundef %24, ptr noundef %14, i32 noundef %27, ptr noundef %28, ptr noundef %29, i64 noundef %30)
  store i32 %31, ptr %13, align 4, !tbaa !19
  %32 = load i32, ptr %13, align 4, !tbaa !19
  %33 = icmp ne i32 %32, 0
  br i1 %33, label %34, label %35

34:                                               ; preds = %22
  br label %36

35:                                               ; preds = %22
  br label %36

36:                                               ; preds = %35, %34, %21
  call void @mbedtls_ecp_point_free(ptr noundef %14)
  %37 = load i32, ptr %13, align 4, !tbaa !19
  call void @llvm.lifetime.end.p0(i64 48, ptr %14) #9
  call void @llvm.lifetime.end.p0(i64 4, ptr %13) #9
  ret i32 %37
}