; Function Attrs: nounwind uwtable
define hidden i32 @mbedtls_ecjpake_write_shared_key(ptr noundef %0, ptr noundef %1, i64 noundef %2, ptr noundef %3, ptr noundef %4, ptr noundef %5) local_unnamed_addr #0 {
  %7 = alloca %struct.mbedtls_ecp_point, align 8
  call void @llvm.lifetime.start.p0(i64 48, ptr nonnull %7) #15
  call void @mbedtls_ecp_point_init(ptr noundef nonnull %7) #15
  %8 = call fastcc i32 @mbedtls_ecjpake_derive_k(ptr noundef %0, ptr noundef %7, ptr noundef %4, ptr noundef %5)
  %.not = icmp eq i32 %8, 0
  br i1 %.not, label %9, label %14

9:                                                ; preds = %6
  %10 = getelementptr inbounds nuw i8, ptr %0, i64 8
  %11 = getelementptr inbounds nuw i8, ptr %0, i64 204
  %12 = load i32, ptr %11, align 4, !tbaa !16
  %13 = call i32 @mbedtls_ecp_point_write_binary(ptr noundef nonnull %10, ptr noundef nonnull %7, i32 noundef %12, ptr noundef %3, ptr noundef %1, i64 noundef %2) #15
  br label %14

14:                                               ; preds = %9, %6
  %.0 = phi i32 [ %8, %6 ], [ %13, %9 ]
  call void @mbedtls_ecp_point_free(ptr noundef nonnull %7) #15
  call void @llvm.lifetime.end.p0(i64 48, ptr nonnull %7) #15
  ret i32 %.0
}